; Function Attrs: mustprogress sspstrong uwtable
define noundef zeroext i1 @_ZN4FLAC8Metadata8Iterator18insert_block_afterEPNS0_9PrototypeE(ptr nocapture noundef nonnull readonly align 8 dereferenceable(16) %this, ptr noundef %block) local_unnamed_addr #0 align 2 {
entry:
  %iterator_ = getelementptr inbounds i8, ptr %this, i64 8
  %0 = load ptr, ptr %iterator_, align 8
  %object_ = getelementptr inbounds i8, ptr %block, i64 8
  %1 = load ptr, ptr %object_, align 8
  %call = tail call i32 @FLAC__metadata_iterator_insert_block_after(ptr noundef %0, ptr noundef %1)
  %tobool = icmp ne i32 %call, 0
  br i1 %tobool, label %if.then, label %if.end

if.then:                                          ; preds = %entry
  %is_reference_.i = getelementptr inbounds i8, ptr %block, i64 16
  store i8 1, ptr %is_reference_.i, align 8
  %vtable = load ptr, ptr %block, align 8
  %vfn = getelementptr inbounds i8, ptr %vtable, i64 16
  %2 = load ptr, ptr %vfn, align 8
  tail call void %2(ptr noundef nonnull align 8 dereferenceable(17) %block) #20
  br label %if.end

if.end:                                           ; preds = %if.then, %entry
  ret i1 %tobool
}